(dp1
S'output'
p2
S"<class 'bdb.BdbQuit'> "
p3
sS'layer'
p4
S'C:\\Users\\Tom\\Development\\web2py\\applications\\YEI_Registratie\\models\\db.py'
p5
sS'code'
p6
S'# -*- coding: utf-8 -*-\nimport datetime\n\n#########################################################################\n## This scaffolding model makes your app work on Google App Engine too\n## File is released under public domain and you can use without limitations\n#########################################################################\n\n## if SSL/HTTPS is properly configured and you want all HTTP requests to\n## be redirected to HTTPS, uncomment the line below:\n# request.requires_https()\n\n## app configuration made easy. Look inside private/appconfig.ini\nfrom gluon.contrib.appconfig import AppConfig\n## once in production, remove reload=True to gain full speed\nmyconf = AppConfig(reload=True)\n\n\nif not request.env.web2py_runtime_gae:\n    ## if NOT running on Google App Engine use SQLite or other DB\n    db = DAL(myconf.take(\'db.uri\'), pool_size=myconf.take(\'db.pool_size\', cast=int))\nelse:\n    ## connect to Google BigTable (optional \'google:datastore://namespace\')\n    db = DAL(\'google:datastore+ndb\')\n    ## store sessions and tickets there\n    session.connect(request, response, db=db)\n    ## or store session in Memcache, Redis, etc.\n    ## from gluon.contrib.memdb import MEMDB\n    ## from google.appengine.api.memcache import Client\n    ## session.connect(request, response, db = MEMDB(Client()))\n\n## by default give a view/generic.extension to all actions from localhost\n## none otherwise. a pattern can be \'controller/function.extension\'\nresponse.generic_patterns = [\'*\'] if request.is_local else []\n## choose a style for forms\nresponse.formstyle = myconf.take(\'forms.formstyle\')  # or \'bootstrap3_stacked\' or \'bootstrap2\' or other\nresponse.form_label_separator = myconf.take(\'forms.separator\')\n\n\n## (optional) optimize handling of static files\n# response.optimize_css = \'concat,minify,inline\'\n# response.optimize_js = \'concat,minify,inline\'\n## (optional) static assets folder versioning\n# response.static_version = \'0.0.0\'\n#########################################################################\n## Here is sample code if you need for\n## - email capabilities\n## - authentication (registration, login, logout, ... )\n## - authorization (role based authorization)\n## - services (xml, csv, json, xmlrpc, jsonrpc, amf, rss)\n## - old style crud actions\n## (more options discussed in gluon/tools.py)\n#########################################################################\n\nfrom gluon.tools import Auth, Service, PluginManager\n\nauth = Auth(db)\nservice = Service()\nplugins = PluginManager()\n\n## create all tables needed by auth if not custom tables\nauth.settings.table_user_name = \'user\'\nauth.settings.table_group_name = \'group_role\'\nauth.settings.table_membership_name = \'group_membership\'\nauth.settings.table_permission_name = \'permission\'\nauth.define_tables()\n\n## configure email\nmail = auth.settings.mailer\nmail.settings.server = \'logging\' if request.is_local else myconf.take(\'smtp.server\')\nmail.settings.sender = myconf.take(\'smtp.sender\')\nmail.settings.login = myconf.take(\'smtp.login\')\n\n## configure auth policy\nauth.settings.actions_disabled.append(\'register\')\nauth.settings.login_url = URL(\'user\', args = \'login\')\nauth.settings.registration_requires_verification = False\nauth.settings.registration_requires_approval = False\nauth.settings.reset_password_requires_verification = True\n\n#########################################################################\n## Define your tables below (or better in another model file) for example\n##\n## >>> db.define_table(\'mytable\',Field(\'myfield\',\'string\'))\n##\n## Fields can be \'string\',\'text\',\'password\',\'integer\',\'double\',\'boolean\'\n##       \'date\',\'time\',\'datetime\',\'blob\',\'upload\', \'reference TABLENAME\'\n## There is an implicit \'id integer autoincrement\' field\n## Consult manual for more options, validators, etc.\n##\n## More API examples for controllers:\n##\n## >>> db.mytable.insert(myfield=\'value\')\n## >>> rows=db(db.mytable.myfield==\'value\').select(db.mytable.ALL)\n## >>> for row in rows: print row.id, row.myfield\n#########################################################################\n\n#########################################################################\n#defining some sets i need\nyears = []\nguest_errors = None\nguest_errors = []\n\ntalk_errors = None\ntalk_errors = []\n\ncompetence_errors = None\ncompetence_errors = []\n#########################################################################\n## after defining tables, uncomment below to enable auditing\nauth.enable_record_versioning(db)\n\n\ndb.define_table(\'category\',\n\tField(\'category\',unique=True,notnull=True,label=T(\'Category\')),\n\tformat = \'%(category)s\')\n\ndb.define_table(\'val\',\n\tField(\'category\',db.category,notnull=True,label=T(\'Category\')),\n\tField(\'val\',notnull=True,label=T(\'Value\')),\n\tField(\'deleted\',\'boolean\',default=False,label=T(\'Deleted\')))\ndb.val.category.requires=IS_IN_DB(db,\'category.id\',\'%(category)s\')\n\ndef getCategory(val):\n\trow = db(db.category.category==val).select().first()\n\ndef valueNotEmpty(val):\n\tif(getCategory(value)==None):\n\t\treturn False\n\telse :\n\t\trow = db(db.val.category == getCategory(val).id).select().first()\n\t\tif row!=None:\n\t\t\treturn True\n\t\telse:\n\t\t\treturn False\n\ndef makeYears():\n\ti = 0\n\tyear = datetime.date.today().year\n\twhile i < 100:\n\t\ti = i + 1\n\t\tyears.append(year)\n\t\tyear = year - 1\n\nmakeYears()\n\ndb.define_table(\'guest\',\n\tField(\'firstname\',notnull=True,label=T(\'Firstname\')),\n\tField(\'familyname\',notnull=True,label=T(\'Family name\')),\n\tField(\'birth_year\',\'integer\',notnull=True,label=T(\'Birth year\')),\n\tField(\'sex\',db.val,notnull=True,label=T(\'Sex\')),\n\tField(\'national_number\',notnull=True,label=T(\'National number\')),\n\tField(\'registration_date\',\'date\',default=request.now,label=T(\'Registration date\')),\n\tField(\'registrator\',db.user,notnull=True,label=T(\'Registered by\')),\n\tField(\'age\',compute=lambda r: (datetime.datetime.now().year) - int(r[\'birth_year\']),label=T(\'Age\')),\n\tformat = \'%(familyname)s\')\n\ndb.guest.birth_year.requires=IS_IN_SET(years,zero=T(\'Choose One\'),error_message = T(\'Choose a year from the list\'))\n\nif(auth.user!=None):\n\tguests_User = db(db.guest.user==auth.user.id)\n\ndef createDropDownListGuests():\n\n\n    if(getCategory(\'guest.sex\')!=None and valueNotEmpty(\'guest.sex\')):\n        query = ((db.val.category == getCategory("guest.sex").id) & (db.val.deleted==False))\n        db.guest.sex.requires=IS_IN_DB(db(query),\'val.id\',\'%(val)s\')\n\n    else:\n        element=\'guest.sex\'\n        guest_errors.append(element)\n\ncreateDropDownListGuests();\n\ndb.define_table(\'talk\',\n    Field(\'registrator\',db.user,notnull=True,label=T(\'Registered by\')),\n    Field(\'guest\',db.guest,notnull=True,label=T(\'Guest\')),\n    Field(\'date_talk\',\'date\',default=request.now,label=T(\'Date Talk\')),\n    Field(\'type_of_talk\',db.val,notnull=True,label=T(\'Type of talk\')),\n    Field(\'story\',\'text\',notnull=True,label=T(\'Story\')),\n    format =\'%(type_of_talk)s\'\n)\n\ndb.define_table(\'competence\',\n    Field(\'guest\',db.guest,notnull=True,label=T(\'Guest\')),\n    Field(\'competence\',db.val,notnull=True,label=T(\'Competence\')),\n    Field(\'type_of_competence\',db.val,label=T(\'Type of competence\')),\n    format = \'%(competence)s\')\n\ndb.define_table(\'action\',\n    Field(\'guest\',db.guest,notnull=True,label=T(\'Guest\')),\n    Field (\'guidance\',db.val,label=T(\'Guidance\')),\n    Field(\'startdate\',\'date\',default=request.now,notnull=True,label=T(\'startdate\')),\n    Field(\'date_to_aim\', \'date\', label=(\'Aimdate\')),\n    Field(\'competence\',db.val, label=(\'Competence\')),\n    Field(\'success\',\'boolean\',label=T(\'Success\')))\n'
p7
sS'snapshot'
p8
(dp9
S'exception'
p10
(dp11
S'__module__'
p12
S"'bdb'"
p13
sS'__getslice__'
p14
S"<method-wrapper '__getslice__' of BdbQuit object>"
p15
sS'__str__'
p16
S"<method-wrapper '__str__' of BdbQuit object>"
p17
sS'__reduce__'
p18
S'<built-in method __reduce__ of BdbQuit object>'
p19
sS'__dict__'
p20
S'{}'
p21
sS'__sizeof__'
p22
S'<built-in method __sizeof__ of BdbQuit object>'
p23
sS'__weakref__'
p24
S'None'
p25
sS'__init__'
p26
S"<method-wrapper '__init__' of BdbQuit object>"
p27
sS'__setattr__'
p28
S"<method-wrapper '__setattr__' of BdbQuit object>"
p29
sS'__reduce_ex__'
p30
S'<built-in method __reduce_ex__ of BdbQuit object>'
p31
sS'__new__'
p32
S'<built-in method __new__ of type object>'
p33
sS'__format__'
p34
S'<built-in method __format__ of BdbQuit object>'
p35
sS'__class__'
p36
S"<class 'bdb.BdbQuit'>"
p37
sS'__doc__'
p38
S"'Exception to give up completely'"
p39
sS'__getitem__'
p40
S"<method-wrapper '__getitem__' of BdbQuit object>"
p41
sS'__setstate__'
p42
S'<built-in method __setstate__ of BdbQuit object>'
p43
sS'__getattribute__'
p44
S"<method-wrapper '__getattribute__' of BdbQuit object>"
p45
sS'args'
p46
S'()'
p47
sS'__subclasshook__'
p48
S'<built-in method __subclasshook__ of type object>'
p49
sS'__unicode__'
p50
S'<built-in method __unicode__ of BdbQuit object>'
p51
sS'__delattr__'
p52
S"<method-wrapper '__delattr__' of BdbQuit object>"
p53
sS'__repr__'
p54
S"<method-wrapper '__repr__' of BdbQuit object>"
p55
sS'__hash__'
p56
S"<method-wrapper '__hash__' of BdbQuit object>"
p57
ssS'evalue'
p58
S''
sS'request'
p59
cgluon.html
XML_unpickle
p60
(S'sd`\x00\x00<div><table><tr><td style="font-weight:bold;vertical-align:top;">ajax</td><td style="vertical-align:top;">:</td><td><div>False</div></td></tr><tr><td style="font-weight:bold;vertical-align:top;">application</td><td style="vertical-align:top;">:</td><td><div>YEI_Registratie</div></td></tr><tr><td style="font-weight:bold;vertical-align:top;">args</td><td style="vertical-align:top;">:</td><td><div><table></table></div></td></tr><tr><td style="font-weight:bold;vertical-align:top;">cid</td><td style="vertical-align:top;">:</td><td><div>None</div></td></tr><tr><td style="font-weight:bold;vertical-align:top;">client</td><td style="vertical-align:top;">:</td><td><div>127.0.0.1</div></td></tr><tr><td style="font-weight:bold;vertical-align:top;">controller</td><td style="vertical-align:top;">:</td><td><div>appadmin</div></td></tr><tr><td style="font-weight:bold;vertical-align:top;">cookies</td><td style="vertical-align:top;">:</td><td><div><table><tr><td style="font-weight:bold;vertical-align:top;">session_id_admin</td><td style="vertical-align:top;">:</td><td><div>127.0.0.1-c865966a-741d-45d2-ad49-b30ea704145a<table><tr><td style="font-weight:bold;vertical-align:top;">comment</td><td style="vertical-align:top;">:</td><td><div></div></td></tr><tr><td style="font-weight:bold;vertical-align:top;">domain</td><td style="vertical-align:top;">:</td><td><div></div></td></tr><tr><td style="font-weight:bold;vertical-align:top;">expires</td><td style="vertical-align:top;">:</td><td><div></div></td></tr><tr><td style="font-weight:bold;vertical-align:top;">httponly</td><td style="vertical-align:top;">:</td><td><div></div></td></tr><tr><td style="font-weight:bold;vertical-align:top;">max-age</td><td style="vertical-align:top;">:</td><td><div></div></td></tr><tr><td style="font-weight:bold;vertical-align:top;">path</td><td style="vertical-align:top;">:</td><td><div></div></td></tr><tr><td style="font-weight:bold;vertical-align:top;">secure</td><td style="vertical-align:top;">:</td><td><div></div></td></tr><tr><td style="font-weight:bold;vertical-align:top;">version</td><td style="vertical-align:top;">:</td><td><div></div></td></tr></table></div></td></tr><tr><td style="font-weight:bold;vertical-align:top;">session_id_welcome</td><td style="vertical-align:top;">:</td><td><div>127.0.0.1-349468c0-35d8-4a5f-9375-2fc413735aaa<table><tr><td style="font-weight:bold;vertical-align:top;">comment</td><td style="vertical-align:top;">:</td><td><div></div></td></tr><tr><td style="font-weight:bold;vertical-align:top;">domain</td><td style="vertical-align:top;">:</td><td><div></div></td></tr><tr><td style="font-weight:bold;vertical-align:top;">expires</td><td style="vertical-align:top;">:</td><td><div></div></td></tr><tr><td style="font-weight:bold;vertical-align:top;">httponly</td><td style="vertical-align:top;">:</td><td><div></div></td></tr><tr><td style="font-weight:bold;vertical-align:top;">max-age</td><td style="vertical-align:top;">:</td><td><div></div></td></tr><tr><td style="font-weight:bold;vertical-align:top;">path</td><td style="vertical-align:top;">:</td><td><div></div></td></tr><tr><td style="font-weight:bold;vertical-align:top;">secure</td><td style="vertical-align:top;">:</td><td><div></div></td></tr><tr><td style="font-weight:bold;vertical-align:top;">version</td><td style="vertical-align:top;">:</td><td><div></div></td></tr></table></div></td></tr><tr><td style="font-weight:bold;vertical-align:top;">session_id_yei_registratie</td><td style="vertical-align:top;">:</td><td><div>127.0.0.1-4f1cdfcd-e121-4edb-a947-e39ab6d1be31<table><tr><td style="font-weight:bold;vertical-align:top;">comment</td><td style="vertical-align:top;">:</td><td><div></div></td></tr><tr><td style="font-weight:bold;vertical-align:top;">domain</td><td style="vertical-align:top;">:</td><td><div></div></td></tr><tr><td style="font-weight:bold;vertical-align:top;">expires</td><td style="vertical-align:top;">:</td><td><div></div></td></tr><tr><td style="font-weight:bold;vertical-align:top;">httponly</td><td style="vertical-align:top;">:</td><td><div></div></td></tr><tr><td style="font-weight:bold;vertical-align:top;">max-age</td><td style="vertical-align:top;">:</td><td><div></div></td></tr><tr><td style="font-weight:bold;vertical-align:top;">path</td><td style="vertical-align:top;">:</td><td><div></div></td></tr><tr><td style="font-weight:bold;vertical-align:top;">secure</td><td style="vertical-align:top;">:</td><td><div></div></td></tr><tr><td style="font-weight:bold;vertical-align:top;">version</td><td style="vertical-align:top;">:</td><td><div></div></td></tr></table></div></td></tr></table></div></td></tr><tr><td style="font-weight:bold;vertical-align:top;">env</td><td style="vertical-align:top;">:</td><td><div><table><tr><td style="font-weight:bold;vertical-align:top;">HTTP_ACCEPT</td><td style="vertical-align:top;">:</td><td><div>text/html,application/xhtml+xml,application/xml;q=0.9,image/webp,*/*;q=0.8</div></td></tr><tr><td style="font-weight:bold;vertical-align:top;">HTTP_ACCEPT_ENCODING</td><td style="vertical-align:top;">:</td><td><div>gzip, deflate, sdch</div></td></tr><tr><td style="font-weight:bold;vertical-align:top;">HTTP_ACCEPT_LANGUAGE</td><td style="vertical-align:top;">:</td><td><div>en-US,en;q=0.8,nl;q=0.6,pt;q=0.4</div></td></tr><tr><td style="font-weight:bold;vertical-align:top;">HTTP_CONNECTION</td><td style="vertical-align:top;">:</td><td><div>keep-alive</div></td></tr><tr><td style="font-weight:bold;vertical-align:top;">HTTP_COOKIE</td><td style="vertical-align:top;">:</td><td><div>session_id_welcome=127.0.0.1-349468c0-35d8-4a5f-9375-2fc413735aaa; session_id_yei_registratie=127.0.0.1-4f1cdfcd-e121-4edb-a947-e39ab6d1be31; session_id_admin=127.0.0.1-c865966a-741d-45d2-ad49-b30ea704145a</div></td></tr><tr><td style="font-weight:bold;vertical-align:top;">HTTP_HOST</td><td style="vertical-align:top;">:</td><td><div>localhost:8000</div></td></tr><tr><td style="font-weight:bold;vertical-align:top;">HTTP_REFERER</td><td style="vertical-align:top;">:</td><td><div>http://localhost:8000/admin/default/design/YEI_Registratie</div></td></tr><tr><td style="font-weight:bold;vertical-align:top;">HTTP_UPGRADE_INSECURE_REQUESTS</td><td style="vertical-align:top;">:</td><td><div>1</div></td></tr><tr><td style="font-weight:bold;vertical-align:top;">HTTP_USER_AGENT</td><td style="vertical-align:top;">:</td><td><div>Mozilla/5.0 (Windows NT 10.0; WOW64) AppleWebKit/537.36 (KHTML, like Gecko) Chrome/44.0.2403.157 Safari/537.36</div></td></tr><tr><td style="font-weight:bold;vertical-align:top;">PATH_INFO</td><td style="vertical-align:top;">:</td><td><div>/YEI_Registratie/appadmin/index</div></td></tr><tr><td style="font-weight:bold;vertical-align:top;">QUERY_STRING</td><td style="vertical-align:top;">:</td><td><div></div></td></tr><tr><td style="font-weight:bold;vertical-align:top;">REMOTE_ADDR</td><td style="vertical-align:top;">:</td><td><div>127.0.0.1</div></td></tr><tr><td style="font-weight:bold;vertical-align:top;">REMOTE_PORT</td><td style="vertical-align:top;">:</td><td><div>52325</div></td></tr><tr><td style="font-weight:bold;vertical-align:top;">REQUEST_METHOD</td><td style="vertical-align:top;">:</td><td><div>GET</div></td></tr><tr><td style="font-weight:bold;vertical-align:top;">SCRIPT_NAME</td><td style="vertical-align:top;">:</td><td><div></div></td></tr><tr><td style="font-weight:bold;vertical-align:top;">SERVER_NAME</td><td style="vertical-align:top;">:</td><td><div>Tom_natus-Laptop</div></td></tr><tr><td style="font-weight:bold;vertical-align:top;">SERVER_PORT</td><td style="vertical-align:top;">:</td><td><div>8000</div></td></tr><tr><td style="font-weight:bold;vertical-align:top;">SERVER_PROTOCOL</td><td style="vertical-align:top;">:</td><td><div>HTTP/1.1</div></td></tr><tr><td style="font-weight:bold;vertical-align:top;">SERVER_SOFTWARE</td><td style="vertical-align:top;">:</td><td><div>Rocket 1.2.6</div></td></tr><tr><td style="font-weight:bold;vertical-align:top;">app_folders</td><td style="vertical-align:top;">:</td><td><div>set([&#x27;C:\\\\Users\\\\Tom\\\\Development\\\\web2py\\\\applications\\\\admin\\\\&#x27;, &#x27;C:\\\\Users\\\\Tom\\\\Development\\\\web2py\\\\applications\\\\welcome\\\\&#x27;, &#x27;C:\\\\Users\\\\Tom\\\\Development\\\\web2py\\\\applications\\\\YEI_Registratie\\\\&#x27;, &#x27;C:\\\\Users\\\\Tom\\\\Development\\\\web2py\\\\applications\\\\ShwDef\\\\&#x27;])</div></td></tr><tr><td style="font-weight:bold;vertical-align:top;">applications_parent</td><td style="vertical-align:top;">:</td><td><div>C:\\Users\\Tom\\Development\\web2py</div></td></tr><tr><td style="font-weight:bold;vertical-align:top;">cmd_args</td><td style="vertical-align:top;">:</td><td><div><table></table></div></td></tr><tr><td style="font-weight:bold;vertical-align:top;">cmd_options</td><td style="vertical-align:top;">:</td><td><div>&lt;Values at 0x394d748: {&#x27;verbose&#x27;: False, &#x27;ip&#x27;: &#x27;127.0.0.1&#x27;, &#x27;debuglevel&#x27;: 30, &#x27;with_scheduler&#x27;: False, &#x27;ips&#x27;: [&#x27;2001:0:5ef5:79fd:14c7:1553:3f57:ff74&#x27;, &#x27;fe80::14c7:1553:3f57:ff74%6&#x27;, &#x27;192.168.0.139&#x27;, &#x27;fe80::f816:d1eb:a7a:39ad%4&#x27;], &#x27;shutdown_timeout&#x27;: 5, &#x27;taskbar&#x27;: False, &#x27;with_coverage&#x27;: False, &#x27;scheduler_groups&#x27;: None, &#x27;port&#x27;: 8000, &#x27;maxthreads&#x27;: None, &#x27;softcron&#x27;: False, &#x27;server_name&#x27;: &#x27;Tom_natus-Laptop&#x27;, &#x27;bpython&#x27;: False, &#x27;nogui&#x27;: False, &#x27;pid_filename&#x27;: &#x27;httpserver.pid&#x27;, &#x27;print_errors&#x27;: False, &#x27;extcron&#x27;: False, &#x27;runcron&#x27;: False, &#x27;run_system_tests&#x27;: False, &#x27;test&#x27;: None, &#x27;folder&#x27;: &#x27;C:\\\\Users\\\\Tom\\\\Development\\\\web2py&#x27;, &#x27;config&#x27;: &#x27;&#x27;, &#x27;minthreads&#x27;: None, &#x27;shell&#x27;: None, &#x27;run&#x27;: &#x27;&#x27;, &#x27;log_filename&#x27;: &#x27;httpserver.log&#x27;, &#x27;profiler_dir&#x27;: None, &#x27;args&#x27;: [&#x27;&#x27;], &#x27;socket_timeout&#x27;: 5, &#x27;ssl_ca_certificate&#x27;: None, &#x27;scheduler&#x27;: None, &#x27;interfaces&#x27;: None, &#x27;ssl_private_key&#x27;: &#x27;&#x27;, &#x27;gae&#x27;: None, &#x27;password&#x27;: &#x27;&lt;ask&gt;&#x27;, &#x27;request_queue_size&#x27;: 5, &#x27;ssl_certificate&#x27;: &#x27;&#x27;, &#x27;cronjob&#x27;: False, &#x27;numthreads&#x27;: None, &#x27;quiet&#x27;: False, &#x27;import_models&#x27;: False, &#x27;timeout&#x27;: 10, &#x27;plain&#x27;: False, &#x27;nobanner&#x27;: False}&gt;</div></td></tr><tr><td style="font-weight:bold;vertical-align:top;">db_sessions</td><td style="vertical-align:top;">:</td><td><div>set([])</div></td></tr><tr><td style="font-weight:bold;vertical-align:top;">debugging</td><td style="vertical-align:top;">:</td><td><div>True</div></td></tr><tr><td style="font-weight:bold;vertical-align:top;">gluon_parent</td><td style="vertical-align:top;">:</td><td><div>C:\\Users\\Tom\\Development\\web2py</div></td></tr><tr><td style="font-weight:bold;vertical-align:top;">http_accept</td><td style="vertical-align:top;">:</td><td><div>text/html,application/xhtml+xml,application/xml;q=0.9,image/webp,*/*;q=0.8</div></td></tr><tr><td style="font-weight:bold;vertical-align:top;">http_accept_encoding</td><td style="vertical-align:top;">:</td><td><div>gzip, deflate, sdch</div></td></tr><tr><td style="font-weight:bold;vertical-align:top;">http_accept_language</td><td style="vertical-align:top;">:</td><td><div>en-US,en;q=0.8,nl;q=0.6,pt;q=0.4</div></td></tr><tr><td style="font-weight:bold;vertical-align:top;">http_connection</td><td style="vertical-align:top;">:</td><td><div>keep-alive</div></td></tr><tr><td style="font-weight:bold;vertical-align:top;">http_cookie</td><td style="vertical-align:top;">:</td><td><div>session_id_welcome=127.0.0.1-349468c0-35d8-4a5f-9375-2fc413735aaa; session_id_yei_registratie=127.0.0.1-4f1cdfcd-e121-4edb-a947-e39ab6d1be31; session_id_admin=127.0.0.1-c865966a-741d-45d2-ad49-b30ea704145a</div></td></tr><tr><td style="font-weight:bold;vertical-align:top;">http_host</td><td style="vertical-align:top;">:</td><td><div>localhost:8000</div></td></tr><tr><td style="font-weight:bold;vertical-align:top;">http_referer</td><td style="vertical-align:top;">:</td><td><div>http://localhost:8000/admin/default/design/YEI_Registratie</div></td></tr><tr><td style="font-weight:bold;vertical-align:top;">http_upgrade_insecure_requests</td><td style="vertical-align:top;">:</td><td><div>1</div></td></tr><tr><td style="font-weight:bold;vertical-align:top;">http_user_agent</td><td style="vertical-align:top;">:</td><td><div>Mozilla/5.0 (Windows NT 10.0; WOW64) AppleWebKit/537.36 (KHTML, like Gecko) Chrome/44.0.2403.157 Safari/537.36</div></td></tr><tr><td style="font-weight:bold;vertical-align:top;">is_jython</td><td style="vertical-align:top;">:</td><td><div>False</div></td></tr><tr><td style="font-weight:bold;vertical-align:top;">is_pypy</td><td style="vertical-align:top;">:</td><td><div>False</div></td></tr><tr><td style="font-weight:bold;vertical-align:top;">is_source</td><td style="vertical-align:top;">:</td><td><div>True</div></td></tr><tr><td style="font-weight:bold;vertical-align:top;">local_hosts</td><td style="vertical-align:top;">:</td><td><div><table><tr><td><div>192.168.0.139</div></td></tr><tr><td><div>fe80::f816:d1eb:a7a:39ad%4</div></td></tr><tr><td><div>::ffff:127.0.0.1</div></td></tr><tr><td><div>::1</div></td></tr><tr><td><div>2001:0:5ef5:79fd:14c7:1553:3f57:ff74</div></td></tr><tr><td><div>Tom_natus-Laptop</div></td></tr><tr><td><div>fe80::14c7:1553:3f57:ff74%6</div></td></tr><tr><td><div>127.0.0.1</div></td></tr></table></div></td></tr><tr><td style="font-weight:bold;vertical-align:top;">path_info</td><td style="vertical-align:top;">:</td><td><div>/YEI_Registratie/appadmin/index</div></td></tr><tr><td style="font-weight:bold;vertical-align:top;">query_string</td><td style="vertical-align:top;">:</td><td><div></div></td></tr><tr><td style="font-weight:bold;vertical-align:top;">remote_addr</td><td style="vertical-align:top;">:</td><td><div>127.0.0.1</div></td></tr><tr><td style="font-weight:bold;vertical-align:top;">remote_port</td><td style="vertical-align:top;">:</td><td><div>52325</div></td></tr><tr><td style="font-weight:bold;vertical-align:top;">request_method</td><td style="vertical-align:top;">:</td><td><div>GET</div></td></tr><tr><td style="font-weight:bold;vertical-align:top;">request_uri</td><td style="vertical-align:top;">:</td><td><div>/YEI_Registratie/appadmin/index</div></td></tr><tr><td style="font-weight:bold;vertical-align:top;">script_name</td><td style="vertical-align:top;">:</td><td><div></div></td></tr><tr><td style="font-weight:bold;vertical-align:top;">server_name</td><td style="vertical-align:top;">:</td><td><div>Tom_natus-Laptop</div></td></tr><tr><td style="font-weight:bold;vertical-align:top;">server_port</td><td style="vertical-align:top;">:</td><td><div>8000</div></td></tr><tr><td style="font-weight:bold;vertical-align:top;">server_protocol</td><td style="vertical-align:top;">:</td><td><div>HTTP/1.1</div></td></tr><tr><td style="font-weight:bold;vertical-align:top;">server_software</td><td style="vertical-align:top;">:</td><td><div>Rocket 1.2.6</div></td></tr><tr><td style="font-weight:bold;vertical-align:top;">web2py_path</td><td style="vertical-align:top;">:</td><td><div>C:\\Users\\Tom\\Development\\web2py</div></td></tr><tr><td style="font-weight:bold;vertical-align:top;">web2py_version</td><td style="vertical-align:top;">:</td><td><div>2.11.2-stable+timestamp.2015.05.30.16.33.24</div></td></tr><tr><td style="font-weight:bold;vertical-align:top;">wsgi.errors</td><td style="vertical-align:top;">:</td><td><div>&lt;open file &#x27;&lt;stderr&gt;&#x27;, mode &#x27;w&#x27; at 0x000000000222B150&gt;</div></td></tr><tr><td style="font-weight:bold;vertical-align:top;">wsgi.file_wrapper</td><td style="vertical-align:top;">:</td><td><div>&lt;class wsgiref.util.FileWrapper at 0x00000000038E6468&gt;</div></td></tr><tr><td style="font-weight:bold;vertical-align:top;">wsgi.input</td><td style="vertical-align:top;">:</td><td><div>&lt;socket._fileobject object at 0x0000000009E4D1B0&gt;</div></td></tr><tr><td style="font-weight:bold;vertical-align:top;">wsgi.multiprocess</td><td style="vertical-align:top;">:</td><td><div>False</div></td></tr><tr><td style="font-weight:bold;vertical-align:top;">wsgi.multithread</td><td style="vertical-align:top;">:</td><td><div>True</div></td></tr><tr><td style="font-weight:bold;vertical-align:top;">wsgi.run_once</td><td style="vertical-align:top;">:</td><td><div>False</div></td></tr><tr><td style="font-weight:bold;vertical-align:top;">wsgi.url_scheme</td><td style="vertical-align:top;">:</td><td><div>http</div></td></tr><tr><td style="font-weight:bold;vertical-align:top;">wsgi.version</td><td style="vertical-align:top;">:</td><td><div><table><tr><td><div>1</div></td></tr><tr><td><div>0</div></td></tr></table></div></td></tr><tr><td style="font-weight:bold;vertical-align:top;">wsgi_errors</td><td style="vertical-align:top;">:</td><td><div>&lt;open file &#x27;&lt;stderr&gt;&#x27;, mode &#x27;w&#x27; at 0x000000000222B150&gt;</div></td></tr><tr><td style="font-weight:bold;vertical-align:top;">wsgi_file_wrapper</td><td style="vertical-align:top;">:</td><td><div>&lt;class wsgiref.util.FileWrapper at 0x00000000038E6468&gt;</div></td></tr><tr><td style="font-weight:bold;vertical-align:top;">wsgi_input</td><td style="vertical-align:top;">:</td><td><div>&lt;socket._fileobject object at 0x0000000009E4D1B0&gt;</div></td></tr><tr><td style="font-weight:bold;vertical-align:top;">wsgi_multiprocess</td><td style="vertical-align:top;">:</td><td><div>False</div></td></tr><tr><td style="font-weight:bold;vertical-align:top;">wsgi_multithread</td><td style="vertical-align:top;">:</td><td><div>True</div></td></tr><tr><td style="font-weight:bold;vertical-align:top;">wsgi_run_once</td><td style="vertical-align:top;">:</td><td><div>False</div></td></tr><tr><td style="font-weight:bold;vertical-align:top;">wsgi_url_scheme</td><td style="vertical-align:top;">:</td><td><div>http</div></td></tr><tr><td style="font-weight:bold;vertical-align:top;">wsgi_version</td><td style="vertical-align:top;">:</td><td><div><table><tr><td><div>1</div></td></tr><tr><td><div>0</div></td></tr></table></div></td></tr></table></div></td></tr><tr><td style="font-weight:bold;vertical-align:top;">extension</td><td style="vertical-align:top;">:</td><td><div>html</div></td></tr><tr><td style="font-weight:bold;vertical-align:top;">folder</td><td style="vertical-align:top;">:</td><td><div>C:\\Users\\Tom\\Development\\web2py\\applications\\YEI_Registratie\\</div></td></tr><tr><td style="font-weight:bold;vertical-align:top;">function</td><td style="vertical-align:top;">:</td><td><div>index</div></td></tr><tr><td style="font-weight:bold;vertical-align:top;">global_settings</td><td style="vertical-align:top;">:</td><td><div><table><tr><td style="font-weight:bold;vertical-align:top;">app_folders</td><td style="vertical-align:top;">:</td><td><div>set([&#x27;C:\\\\Users\\\\Tom\\\\Development\\\\web2py\\\\applications\\\\admin\\\\&#x27;, &#x27;C:\\\\Users\\\\Tom\\\\Development\\\\web2py\\\\applications\\\\welcome\\\\&#x27;, &#x27;C:\\\\Users\\\\Tom\\\\Development\\\\web2py\\\\applications\\\\YEI_Registratie\\\\&#x27;, &#x27;C:\\\\Users\\\\Tom\\\\Development\\\\web2py\\\\applications\\\\ShwDef\\\\&#x27;])</div></td></tr><tr><td style="font-weight:bold;vertical-align:top;">applications_parent</td><td style="vertical-align:top;">:</td><td><div>C:\\Users\\Tom\\Development\\web2py</div></td></tr><tr><td style="font-weight:bold;vertical-align:top;">cmd_args</td><td style="vertical-align:top;">:</td><td><div><table></table></div></td></tr><tr><td style="font-weight:bold;vertical-align:top;">cmd_options</td><td style="vertical-align:top;">:</td><td><div>&lt;Values at 0x394d748: {&#x27;verbose&#x27;: False, &#x27;ip&#x27;: &#x27;127.0.0.1&#x27;, &#x27;debuglevel&#x27;: 30, &#x27;with_scheduler&#x27;: False, &#x27;ips&#x27;: [&#x27;2001:0:5ef5:79fd:14c7:1553:3f57:ff74&#x27;, &#x27;fe80::14c7:1553:3f57:ff74%6&#x27;, &#x27;192.168.0.139&#x27;, &#x27;fe80::f816:d1eb:a7a:39ad%4&#x27;], &#x27;shutdown_timeout&#x27;: 5, &#x27;taskbar&#x27;: False, &#x27;with_coverage&#x27;: False, &#x27;scheduler_groups&#x27;: None, &#x27;port&#x27;: 8000, &#x27;maxthreads&#x27;: None, &#x27;softcron&#x27;: False, &#x27;server_name&#x27;: &#x27;Tom_natus-Laptop&#x27;, &#x27;bpython&#x27;: False, &#x27;nogui&#x27;: False, &#x27;pid_filename&#x27;: &#x27;httpserver.pid&#x27;, &#x27;print_errors&#x27;: False, &#x27;extcron&#x27;: False, &#x27;runcron&#x27;: False, &#x27;run_system_tests&#x27;: False, &#x27;test&#x27;: None, &#x27;folder&#x27;: &#x27;C:\\\\Users\\\\Tom\\\\Development\\\\web2py&#x27;, &#x27;config&#x27;: &#x27;&#x27;, &#x27;minthreads&#x27;: None, &#x27;shell&#x27;: None, &#x27;run&#x27;: &#x27;&#x27;, &#x27;log_filename&#x27;: &#x27;httpserver.log&#x27;, &#x27;profiler_dir&#x27;: None, &#x27;args&#x27;: [&#x27;&#x27;], &#x27;socket_timeout&#x27;: 5, &#x27;ssl_ca_certificate&#x27;: None, &#x27;scheduler&#x27;: None, &#x27;interfaces&#x27;: None, &#x27;ssl_private_key&#x27;: &#x27;&#x27;, &#x27;gae&#x27;: None, &#x27;password&#x27;: &#x27;&lt;ask&gt;&#x27;, &#x27;request_queue_size&#x27;: 5, &#x27;ssl_certificate&#x27;: &#x27;&#x27;, &#x27;cronjob&#x27;: False, &#x27;numthreads&#x27;: None, &#x27;quiet&#x27;: False, &#x27;import_models&#x27;: False, &#x27;timeout&#x27;: 10, &#x27;plain&#x27;: False, &#x27;nobanner&#x27;: False}&gt;</div></td></tr><tr><td style="font-weight:bold;vertical-align:top;">db_sessions</td><td style="vertical-align:top;">:</td><td><div>set([])</div></td></tr><tr><td style="font-weight:bold;vertical-align:top;">debugging</td><td style="vertical-align:top;">:</td><td><div>True</div></td></tr><tr><td style="font-weight:bold;vertical-align:top;">gluon_parent</td><td style="vertical-align:top;">:</td><td><div>C:\\Users\\Tom\\Development\\web2py</div></td></tr><tr><td style="font-weight:bold;vertical-align:top;">is_jython</td><td style="vertical-align:top;">:</td><td><div>False</div></td></tr><tr><td style="font-weight:bold;vertical-align:top;">is_pypy</td><td style="vertical-align:top;">:</td><td><div>False</div></td></tr><tr><td style="font-weight:bold;vertical-align:top;">is_source</td><td style="vertical-align:top;">:</td><td><div>True</div></td></tr><tr><td style="font-weight:bold;vertical-align:top;">local_hosts</td><td style="vertical-align:top;">:</td><td><div><table><tr><td><div>192.168.0.139</div></td></tr><tr><td><div>fe80::f816:d1eb:a7a:39ad%4</div></td></tr><tr><td><div>::ffff:127.0.0.1</div></td></tr><tr><td><div>::1</div></td></tr><tr><td><div>2001:0:5ef5:79fd:14c7:1553:3f57:ff74</div></td></tr><tr><td><div>Tom_natus-Laptop</div></td></tr><tr><td><div>fe80::14c7:1553:3f57:ff74%6</div></td></tr><tr><td><div>127.0.0.1</div></td></tr></table></div></td></tr><tr><td style="font-weight:bold;vertical-align:top;">web2py_version</td><td style="vertical-align:top;">:</td><td><div>2.11.2-stable+timestamp.2015.05.30.16.33.24</div></td></tr></table></div></td></tr><tr><td style="font-weight:bold;vertical-align:top;">is_https</td><td style="vertical-align:top;">:</td><td><div>False</div></td></tr><tr><td style="font-weight:bold;vertical-align:top;">is_local</td><td style="vertical-align:top;">:</td><td><div>True</div></td></tr><tr><td style="font-weight:bold;vertical-align:top;">is_restful</td><td style="vertical-align:top;">:</td><td><div>False</div></td></tr><tr><td style="font-weight:bold;vertical-align:top;">is_sheduler</td><td style="vertical-align:top;">:</td><td><div>None</div></td></tr><tr><td style="font-weight:bold;vertical-align:top;">is_shell</td><td style="vertical-align:top;">:</td><td><div>None</div></td></tr><tr><td style="font-weight:bold;vertical-align:top;">now</td><td style="vertical-align:top;">:</td><td><div>datetime.datetime(2015, 8, 24, 11, 54, 41, 461000)</div></td></tr><tr><td style="font-weight:bold;vertical-align:top;">raw_args</td><td style="vertical-align:top;">:</td><td><div></div></td></tr><tr><td style="font-weight:bold;vertical-align:top;">raw_extension</td><td style="vertical-align:top;">:</td><td><div>None</div></td></tr><tr><td style="font-weight:bold;vertical-align:top;">url</td><td style="vertical-align:top;">:</td><td><div>/YEI_Registratie/appadmin/index</div></td></tr><tr><td style="font-weight:bold;vertical-align:top;">utcnow</td><td style="vertical-align:top;">:</td><td><div>datetime.datetime(2015, 8, 24, 9, 54, 41, 461000)</div></td></tr><tr><td style="font-weight:bold;vertical-align:top;">wsgi</td><td style="vertical-align:top;">:</td><td><div>&lt;gluon.main.LazyWSGI object at 0x000000000A56CC50&gt;</div></td></tr></table></div>'
tRp61
sS'frames'
p62
(lp63
(dp64
S'file'
p65
S'C:\\Users\\Tom\\Development\\web2py\\gluon\\restricted.py'
p66
sS'dump'
p67
(dp68
S'environment'
p69
S"{'A': <class 'gluon.html.A'>, 'ANY_OF': <class 'gluon.validators.ANY_OF'>, 'ASSIGNJS': <function ASSIGNJS>, 'AppConfig': <function AppConfig>, 'Auth': <class 'gluon.tools.Auth'>, 'B': <class 'gluon.html.B'>, 'BEAUTIFY': <class 'gluon.html.BEAUTIFY'>, 'BODY': <class 'gluon.html.BODY'>, 'BR': <class 'gluon.html.BR'>, 'BUTTON': <class 'gluon.html.BUTTON'>, ...}"
p70
sS'ccode'
p71
S'<code object <module> at 000000000994E3B0, file ...plications\\YEI_Registratie\\models\\db.py", line 2>'
p72
ssS'lnum'
p73
I227
sS'lines'
p74
(dp75
I224
S'            ccode = code'
p76
sI225
S'        else:'
p77
sI226
S'            ccode = compile2(code, layer)'
p78
sI227
S'        exec ccode in environment'
p79
sI228
S'    except HTTP:'
p80
sI229
S'        raise'
p81
sI230
S'    except RestrictedError:'
p82
sI231
S'        # do not encapsulate (obfuscate) the original RestrictedError'
p83
sI222
S'    try:'
p84
sI223
S'        if isinstance(code, types.CodeType):'
p85
ssS'call'
p86
S'(code="# -*- coding: utf-8 -*-\\nimport datetime\\n\\n#######...  Field(\'success\',\'boolean\',label=T(\'Success\')))\\n", environment={\'A\': <class \'gluon.html.A\'>, \'ANY_OF\': <class \'gluon.validators.ANY_OF\'>, \'ASSIGNJS\': <function ASSIGNJS>, \'AppConfig\': <function AppConfig>, \'Auth\': <class \'gluon.tools.Auth\'>, \'B\': <class \'gluon.html.B\'>, \'BEAUTIFY\': <class \'gluon.html.BEAUTIFY\'>, \'BODY\': <class \'gluon.html.BODY\'>, \'BR\': <class \'gluon.html.BR\'>, \'BUTTON\': <class \'gluon.html.BUTTON\'>, ...}, layer=r\'C:\\Users\\Tom\\Development\\web2py\\applications\\YEI_Registratie\\models\\db.py\')'
p87
sS'func'
p88
S'restricted'
p89
sa(dp90
g65
S'C:\\Users\\Tom\\Development\\web2py\\applications\\YEI_Registratie\\models\\db.py'
p91
sg67
(dp92
S'createDropDownListGuests'
p93
S'undefined'
p94
ssg73
I163
sg74
(dp95
I160
S'if(auth.user!=None):'
p96
sI161
S'\tguests_User = db(db.guest.user==auth.user.id)'
p97
sI162
S''
sI163
S'def createDropDownListGuests():'
p98
sI164
S''
sI165
S''
sI166
S"    if(getCategory('guest.sex')!=None and valueNotEmpty('guest.sex')):"
p99
sI167
S'        query = ((db.val.category == getCategory("guest.sex").id) & (db.val.deleted==False))'
p100
sI158
S"db.guest.birth_year.requires=IS_IN_SET(years,zero=T('Choose One'),error_message = T('Choose a year from the list'))"
p101
sI159
S''
ssg86
S'()'
p102
sg88
S'<module>'
p103
sa(dp104
g65
S'C:\\Users\\Tom\\Development\\web2py\\applications\\YEI_Registratie\\models\\db.py'
p105
sg67
(dp106
S'createDropDownListGuests'
p107
g94
ssg73
I163
sg74
(dp108
I160
S'if(auth.user!=None):'
p109
sI161
S'\tguests_User = db(db.guest.user==auth.user.id)'
p110
sI162
S''
sI163
S'def createDropDownListGuests():'
p111
sI164
S''
sI165
S''
sI166
S"    if(getCategory('guest.sex')!=None and valueNotEmpty('guest.sex')):"
p112
sI167
S'        query = ((db.val.category == getCategory("guest.sex").id) & (db.val.deleted==False))'
p113
sI158
S"db.guest.birth_year.requires=IS_IN_SET(years,zero=T('Choose One'),error_message = T('Choose a year from the list'))"
p114
sI159
S''
ssg86
S'()'
p115
sg88
g103
sa(dp116
g65
S'C:\\Users\\Tom\\Development\\web2py\\gluon\\contrib\\qdb.py'
p117
sg67
(dp118
S'self.dispatch_line'
p119
S'<bound method Qdb.dispatch_line of <gluon.contrib.qdb.Qdb instance>>'
p120
sS'self'
p121
S'<gluon.contrib.qdb.Qdb instance>'
p122
sS'frame'
p123
S'<frame object>'
p124
ssg73
I89
sg74
(dp125
I84
S'            self.pull_actions()'
p126
sI85
S'        # process the frame (see Bdb.trace_dispatch)'
p127
sI86
S'        if self.quitting:'
p128
sI87
S'            return  # None'
p129
sI88
S"        if event == 'line':"
p130
sI89
S'            return self.dispatch_line(frame)'
p131
sI90
S"        if event == 'call':"
p132
sI91
S'            return self.dispatch_call(frame, arg)'
p133
sI92
S"        if event == 'return':"
p134
sI93
S'            return self.dispatch_return(frame, arg)'
p135
ssg86
S"(self=<gluon.contrib.qdb.Qdb instance>, frame=<frame object>, event='line', arg=None)"
p136
sg88
S'trace_dispatch'
p137
sa(dp138
g65
S'C:\\Python27\\lib\\bdb.py'
p139
sg67
(dp140
S'self'
p141
S'<gluon.contrib.qdb.Qdb instance>'
p142
sS'self.quitting'
p143
S'1'
sS'global BdbQuit'
p144
S"<class 'bdb.BdbQuit'>"
p145
ssg73
I68
sg74
(dp146
I64
S''
sI65
S'    def dispatch_line(self, frame):'
p147
sI66
S'        if self.stop_here(frame) or self.break_here(frame):'
p148
sI67
S'            self.user_line(frame)'
p149
sI68
S'            if self.quitting: raise BdbQuit'
p150
sI69
S'        return self.trace_dispatch'
p151
sI70
S''
sI71
S'    def dispatch_call(self, frame, arg):'
p152
sI72
S"        # XXX 'arg' is no longer used"
p153
sI63
S'        return self.trace_dispatch'
p154
ssg86
S'(self=<gluon.contrib.qdb.Qdb instance>, frame=<frame object>)'
p155
sg88
S'dispatch_line'
p156
sasS'pyver'
p157
S'Python 2.7.10: C:\\Python27\\python.exe (prefix: C:\\Python27)'
p158
sS'session'
p159
g60
(S's4\x01\x00\x00<div><table><tr><td style="font-weight:bold;vertical-align:top;">last_orderby</td><td style="vertical-align:top;">:</td><td><div>None</div></td></tr><tr><td style="font-weight:bold;vertical-align:top;">last_query</td><td style="vertical-align:top;">:</td><td><div>db.val.id&gt;0</div></td></tr></table></div>'
tRp160
sS'etype'
p161
S"<class 'bdb.BdbQuit'>"
p162
sS'date'
p163
S'Mon Aug 24 11:54:46 2015'
p164
sS'response'
p165
g60
(S'sP\x18\x00\x00<div><table><tr><td style="font-weight:bold;vertical-align:top;">body</td><td style="vertical-align:top;">:</td><td><div>&lt;cStringIO.StringO object at 0x0000000009FDDA78&gt;</div></td></tr><tr><td style="font-weight:bold;vertical-align:top;">cookies</td><td style="vertical-align:top;">:</td><td><div><table><tr><td style="font-weight:bold;vertical-align:top;">session_id_yei_registratie</td><td style="vertical-align:top;">:</td><td><div>127.0.0.1-4f1cdfcd-e121-4edb-a947-e39ab6d1be31<table><tr><td style="font-weight:bold;vertical-align:top;">comment</td><td style="vertical-align:top;">:</td><td><div></div></td></tr><tr><td style="font-weight:bold;vertical-align:top;">domain</td><td style="vertical-align:top;">:</td><td><div></div></td></tr><tr><td style="font-weight:bold;vertical-align:top;">expires</td><td style="vertical-align:top;">:</td><td><div></div></td></tr><tr><td style="font-weight:bold;vertical-align:top;">httponly</td><td style="vertical-align:top;">:</td><td><div></div></td></tr><tr><td style="font-weight:bold;vertical-align:top;">max-age</td><td style="vertical-align:top;">:</td><td><div></div></td></tr><tr><td style="font-weight:bold;vertical-align:top;">path</td><td style="vertical-align:top;">:</td><td><div>/</div></td></tr><tr><td style="font-weight:bold;vertical-align:top;">secure</td><td style="vertical-align:top;">:</td><td><div></div></td></tr><tr><td style="font-weight:bold;vertical-align:top;">version</td><td style="vertical-align:top;">:</td><td><div></div></td></tr></table></div></td></tr></table></div></td></tr><tr><td style="font-weight:bold;vertical-align:top;">delimiters</td><td style="vertical-align:top;">:</td><td><div><table><tr><td><div>{{</div></td></tr><tr><td><div>}}</div></td></tr></table></div></td></tr><tr><td style="font-weight:bold;vertical-align:top;">files</td><td style="vertical-align:top;">:</td><td><div><table></table></div></td></tr><tr><td style="font-weight:bold;vertical-align:top;">flash</td><td style="vertical-align:top;">:</td><td><div></div></td></tr><tr><td style="font-weight:bold;vertical-align:top;">form_label_separator</td><td style="vertical-align:top;">:</td><td><div></div></td></tr><tr><td style="font-weight:bold;vertical-align:top;">formstyle</td><td style="vertical-align:top;">:</td><td><div>bootstrap3_inline</div></td></tr><tr><td style="font-weight:bold;vertical-align:top;">generic_patterns</td><td style="vertical-align:top;">:</td><td><div><table><tr><td><div>*</div></td></tr></table></div></td></tr><tr><td style="font-weight:bold;vertical-align:top;">headers</td><td style="vertical-align:top;">:</td><td><div><table><tr><td style="font-weight:bold;vertical-align:top;">X-Powered-By</td><td style="vertical-align:top;">:</td><td><div>web2py</div></td></tr></table></div></td></tr><tr><td style="font-weight:bold;vertical-align:top;">menu</td><td style="vertical-align:top;">:</td><td><div><table></table></div></td></tr><tr><td style="font-weight:bold;vertical-align:top;">meta</td><td style="vertical-align:top;">:</td><td><div><table></table></div></td></tr><tr><td style="font-weight:bold;vertical-align:top;">models_to_run</td><td style="vertical-align:top;">:</td><td><div><table><tr><td><div>^\\w+\\.py$</div></td></tr><tr><td><div>^appadmin/\\w+\\.py$</div></td></tr><tr><td><div>^appadmin/index/\\w+\\.py$</div></td></tr></table></div></td></tr><tr><td style="font-weight:bold;vertical-align:top;">postprocessing</td><td style="vertical-align:top;">:</td><td><div><table></table></div></td></tr><tr><td style="font-weight:bold;vertical-align:top;">session_client</td><td style="vertical-align:top;">:</td><td><div>127.0.0.1</div></td></tr><tr><td style="font-weight:bold;vertical-align:top;">session_cookie_compression_level</td><td style="vertical-align:top;">:</td><td><div>None</div></td></tr><tr><td style="font-weight:bold;vertical-align:top;">session_cookie_expires</td><td style="vertical-align:top;">:</td><td><div>None</div></td></tr><tr><td style="font-weight:bold;vertical-align:top;">session_cookie_key</td><td style="vertical-align:top;">:</td><td><div>None</div></td></tr><tr><td style="font-weight:bold;vertical-align:top;">session_data_name</td><td style="vertical-align:top;">:</td><td><div>session_data_yei_registratie</div></td></tr><tr><td style="font-weight:bold;vertical-align:top;">session_file</td><td style="vertical-align:top;">:</td><td><div>&lt;open file &#x27;C:\\\\Users\\\\Tom\\\\Development\\\\web2py\\\\applications\\\\YEI_Registratie\\\\sessions\\\\11f\\\\0bf\\\\127.0.0.1-4f1cdfcd-e121-4edb-a947-e39ab6d1be31&#x27;, mode &#x27;rb+&#x27; at 0x000000000437EC00&gt;</div></td></tr><tr><td style="font-weight:bold;vertical-align:top;">session_filename</td><td style="vertical-align:top;">:</td><td><div>C:\\Users\\Tom\\Development\\web2py\\applications\\YEI_Registratie\\sessions\\127.0.0.1-4f1cdfcd-e121-4edb-a947-e39ab6d1be31</div></td></tr><tr><td style="font-weight:bold;vertical-align:top;">session_hash</td><td style="vertical-align:top;">:</td><td><div>98e3a723db13d7aebc7811163d9ea443</div></td></tr><tr><td style="font-weight:bold;vertical-align:top;">session_id</td><td style="vertical-align:top;">:</td><td><div>127.0.0.1-4f1cdfcd-e121-4edb-a947-e39ab6d1be31</div></td></tr><tr><td style="font-weight:bold;vertical-align:top;">session_id_name</td><td style="vertical-align:top;">:</td><td><div>session_id_yei_registratie</div></td></tr><tr><td style="font-weight:bold;vertical-align:top;">session_locked</td><td style="vertical-align:top;">:</td><td><div>True</div></td></tr><tr><td style="font-weight:bold;vertical-align:top;">session_masterapp</td><td style="vertical-align:top;">:</td><td><div>YEI_Registratie</div></td></tr><tr><td style="font-weight:bold;vertical-align:top;">session_new</td><td style="vertical-align:top;">:</td><td><div>False</div></td></tr><tr><td style="font-weight:bold;vertical-align:top;">session_storage_type</td><td style="vertical-align:top;">:</td><td><div>file</div></td></tr><tr><td style="font-weight:bold;vertical-align:top;">status</td><td style="vertical-align:top;">:</td><td><div>200</div></td></tr><tr><td style="font-weight:bold;vertical-align:top;">view</td><td style="vertical-align:top;">:</td><td><div>appadmin/index.html</div></td></tr></table></div>'
tRp166
sS'locals'
p167
(dp168
S'frame'
p169
S'<frame object>'
p170
sS'self'
p171
S'<gluon.contrib.qdb.Qdb instance>'
p172
sssS'traceback'
p173
S'Traceback (most recent call last):\n  File "C:\\Users\\Tom\\Development\\web2py\\gluon\\restricted.py", line 227, in restricted\n    exec ccode in environment\n  File "C:\\Users\\Tom\\Development\\web2py\\applications\\YEI_Registratie\\models\\db.py", line 163, in <module>\n    def createDropDownListGuests():\n  File "C:\\Users\\Tom\\Development\\web2py\\applications\\YEI_Registratie\\models\\db.py", line 163, in <module>\n    def createDropDownListGuests():\n  File "C:\\Users\\Tom\\Development\\web2py\\gluon\\contrib\\qdb.py", line 89, in trace_dispatch\n    return self.dispatch_line(frame)\n  File "C:\\Python27\\lib\\bdb.py", line 68, in dispatch_line\n    if self.quitting: raise BdbQuit\nBdbQuit\n'
p174
s.